; Function Attrs: mustprogress ssp uwtable
define noundef zeroext i1 @_ZN6open3d7utility16IJsonConvertible24EigenMatrix6dToJsonArrayERKN5Eigen6MatrixIdLi6ELi6ELi2ELi6ELi6EEERN4Json5ValueE(ptr noundef nonnull readonly align 8 captures(none) dereferenceable(288) %0, ptr noundef nonnull align 8 dereferenceable(40) %1) local_unnamed_addr #1 align 2 personality ptr @__gxx_personality_v0 {
  %3 = alloca %"class.Json::Value", align 8
  tail call void @_ZN4Json5Value5clearEv(ptr noundef nonnull align 8 dereferenceable(40) %1)
  br label %5

4:                                                ; preds = %9
  ret i1 true

5:                                                ; preds = %2, %9
  %indvars.iv = phi i64 [ 0, %2 ], [ %indvars.iv.next, %9 ]
  call void @llvm.lifetime.start.p0(i64 40, ptr nonnull %3) #29
  %6 = getelementptr inbounds nuw double, ptr %0, i64 %indvars.iv
  %7 = load double, ptr %6, align 8, !tbaa !600
  call void @_ZN4Json5ValueC1Ed(ptr noundef nonnull align 8 dereferenceable(40) %3, double noundef %7)
  %8 = invoke noundef nonnull align 8 dereferenceable(40) ptr @_ZN4Json5Value6appendEOS0_(ptr noundef nonnull align 8 dereferenceable(40) %1, ptr noundef nonnull align 8 dereferenceable(40) %3)
          to label %9 unwind label %10

9:                                                ; preds = %5
  call void @_ZN4Json5ValueD1Ev(ptr noundef nonnull align 8 dereferenceable(40) %3) #29
  call void @llvm.lifetime.end.p0(i64 40, ptr nonnull %3) #29
  %indvars.iv.next = add nuw nsw i64 %indvars.iv, 1
  %exitcond.not = icmp eq i64 %indvars.iv.next, 36
  br i1 %exitcond.not, label %4, label %5, !llvm.loop !611

10:                                               ; preds = %5
  %11 = landingpad { ptr, i32 }
          cleanup
  call void @_ZN4Json5ValueD1Ev(ptr noundef nonnull align 8 dereferenceable(40) %3) #29
  call void @llvm.lifetime.end.p0(i64 40, ptr nonnull %3) #29
  resume { ptr, i32 } %11
}